target datalayout = "e-m:e-p270:32:32-p271:32:32-p272:64:64-i64:64-i128:128-f80:128-n8:16:32:64-S128"
target triple = "x86_64-pc-linux-gnu"

%"struct.cv::saliency::TIGbits" = type { i64, i64 }
%"class.cv::saliency::ObjectnessBING::FilterTIG" = type { [2 x i64], [2 x float], [2 x float], [2 x float], [2 x float] }

; Function Attrs: mustprogress nounwind uwtable
define linkonce_odr hidden void @_ZN2cv8saliency7TIGbits10accumulateElllh(ptr noundef nonnull align 8 dereferenceable(16) %0, i64 noundef %1, i64 noundef %2, i64 noundef %3, i8 noundef zeroext %4) #5 comdat align 2 {
  %6 = alloca ptr, align 8
  %7 = alloca i64, align 8
  %8 = alloca i64, align 8
  %9 = alloca i64, align 8
  %10 = alloca i8, align 1
  store ptr %0, ptr %6, align 8
  store i64 %1, ptr %7, align 8
  store i64 %2, ptr %8, align 8
  store i64 %3, ptr %9, align 8
  store i8 %4, ptr %10, align 1
  %11 = load ptr, ptr %6, align 8
  %12 = load i64, ptr %8, align 8
  %13 = load i64, ptr %7, align 8
  %14 = and i64 %12, %13
  %15 = call i64 @llvm.ctpop.i64(i64 %14)
  %16 = trunc i64 %15 to i32
  %17 = shl i32 %16, 1
  %18 = load i64, ptr %7, align 8
  %19 = call i64 @llvm.ctpop.i64(i64 %18)
  %20 = trunc i64 %19 to i32
  %21 = sub nsw i32 %17, %20
  %22 = load i8, ptr %10, align 1
  %23 = zext i8 %22 to i32
  %24 = shl i32 %21, %23
  %25 = sext i32 %24 to i64
  %26 = getelementptr inbounds %"struct.cv::saliency::TIGbits", ptr %11, i32 0, i32 0
  %27 = load i64, ptr %26, align 8
  %28 = add nsw i64 %27, %25
  store i64 %28, ptr %26, align 8
  %29 = load i64, ptr %9, align 8
  %30 = load i64, ptr %7, align 8
  %31 = and i64 %29, %30
  %32 = call i64 @llvm.ctpop.i64(i64 %31)
  %33 = trunc i64 %32 to i32
  %34 = shl i32 %33, 1
  %35 = load i64, ptr %7, align 8
  %36 = call i64 @llvm.ctpop.i64(i64 %35)
  %37 = trunc i64 %36 to i32
  %38 = sub nsw i32 %34, %37
  %39 = load i8, ptr %10, align 1
  %40 = zext i8 %39 to i32
  %41 = shl i32 %38, %40
  %42 = sext i32 %41 to i64
  %43 = getelementptr inbounds %"struct.cv::saliency::TIGbits", ptr %11, i32 0, i32 1
  %44 = load i64, ptr %43, align 8
  %45 = add nsw i64 %44, %42
  store i64 %45, ptr %43, align 8
  ret void
}

; Function Attrs: mustprogress nounwind uwtable
define linkonce_odr hidden void @_ZN2cv8saliency7TIGbitsC2Ev(ptr noundef nonnull align 8 dereferenceable(16) %0) unnamed_addr #5 comdat align 2 {
  %2 = alloca ptr, align 8
  store ptr %0, ptr %2, align 8
  %3 = load ptr, ptr %2, align 8
  %4 = getelementptr inbounds %"struct.cv::saliency::TIGbits", ptr %3, i32 0, i32 0
  store i64 0, ptr %4, align 8
  %5 = getelementptr inbounds %"struct.cv::saliency::TIGbits", ptr %3, i32 0, i32 1
  store i64 0, ptr %5, align 8
  ret void
}

; Function Attrs: mustprogress uwtable
define noundef float @_ZN2cv8saliency14ObjectnessBING9FilterTIG3dotEllll(ptr noundef nonnull align 8 dereferenceable(48) %0, i64 noundef %1, i64 noundef %2, i64 noundef %3, i64 noundef %4) #4 align 2 {
  %6 = alloca ptr, align 8
  %7 = alloca i64, align 8
  %8 = alloca i64, align 8
  %9 = alloca i64, align 8
  %10 = alloca i64, align 8
  %11 = alloca %"struct.cv::saliency::TIGbits", align 8
  store ptr %0, ptr %6, align 8
  store i64 %1, ptr %7, align 8
  store i64 %2, ptr %8, align 8
  store i64 %3, ptr %9, align 8
  store i64 %4, ptr %10, align 8
  %12 = load ptr, ptr %6, align 8
  call void @_ZN2cv8saliency7TIGbitsC2Ev(ptr noundef nonnull align 8 dereferenceable(16) %11)
  %13 = load i64, ptr %7, align 8
  %14 = getelementptr inbounds %"class.cv::saliency::ObjectnessBING::FilterTIG", ptr %12, i32 0, i32 0
  %15 = getelementptr inbounds [2 x i64], ptr %14, i64 0, i64 0
  %16 = load i64, ptr %15, align 8
  %17 = getelementptr inbounds %"class.cv::saliency::ObjectnessBING::FilterTIG", ptr %12, i32 0, i32 0
  %18 = getelementptr inbounds [2 x i64], ptr %17, i64 0, i64 1
  %19 = load i64, ptr %18, align 8
  call void @_ZN2cv8saliency7TIGbits10accumulateElllh(ptr noundef nonnull align 8 dereferenceable(16) %11, i64 noundef %13, i64 noundef %16, i64 noundef %19, i8 noundef zeroext 0)
  %20 = load i64, ptr %8, align 8
  %21 = getelementptr inbounds %"class.cv::saliency::ObjectnessBING::FilterTIG", ptr %12, i32 0, i32 0
  %22 = getelementptr inbounds [2 x i64], ptr %21, i64 0, i64 0
  %23 = load i64, ptr %22, align 8
  %24 = getelementptr inbounds %"class.cv::saliency::ObjectnessBING::FilterTIG", ptr %12, i32 0, i32 0
  %25 = getelementptr inbounds [2 x i64], ptr %24, i64 0, i64 1
  %26 = load i64, ptr %25, align 8
  call void @_ZN2cv8saliency7TIGbits10accumulateElllh(ptr noundef nonnull align 8 dereferenceable(16) %11, i64 noundef %20, i64 noundef %23, i64 noundef %26, i8 noundef zeroext 1)
  %27 = load i64, ptr %9, align 8
  %28 = getelementptr inbounds %"class.cv::saliency::ObjectnessBING::FilterTIG", ptr %12, i32 0, i32 0
  %29 = getelementptr inbounds [2 x i64], ptr %28, i64 0, i64 0
  %30 = load i64, ptr %29, align 8
  %31 = getelementptr inbounds %"class.cv::saliency::ObjectnessBING::FilterTIG", ptr %12, i32 0, i32 0
  %32 = getelementptr inbounds [2 x i64], ptr %31, i64 0, i64 1
  %33 = load i64, ptr %32, align 8
  call void @_ZN2cv8saliency7TIGbits10accumulateElllh(ptr noundef nonnull align 8 dereferenceable(16) %11, i64 noundef %27, i64 noundef %30, i64 noundef %33, i8 noundef zeroext 2)
  %34 = load i64, ptr %10, align 8
  %35 = getelementptr inbounds %"class.cv::saliency::ObjectnessBING::FilterTIG", ptr %12, i32 0, i32 0
  %36 = getelementptr inbounds [2 x i64], ptr %35, i64 0, i64 0
  %37 = load i64, ptr %36, align 8
  %38 = getelementptr inbounds %"class.cv::saliency::ObjectnessBING::FilterTIG", ptr %12, i32 0, i32 0
  %39 = getelementptr inbounds [2 x i64], ptr %38, i64 0, i64 1
  %40 = load i64, ptr %39, align 8
  call void @_ZN2cv8saliency7TIGbits10accumulateElllh(ptr noundef nonnull align 8 dereferenceable(16) %11, i64 noundef %34, i64 noundef %37, i64 noundef %40, i8 noundef zeroext 3)
  %41 = getelementptr inbounds %"class.cv::saliency::ObjectnessBING::FilterTIG", ptr %12, i32 0, i32 1
  %42 = getelementptr inbounds [2 x float], ptr %41, i64 0, i64 0
  %43 = load float, ptr %42, align 8
  %44 = getelementptr inbounds %"struct.cv::saliency::TIGbits", ptr %11, i32 0, i32 0
  %45 = load i64, ptr %44, align 8
  %46 = sitofp i64 %45 to float
  %47 = getelementptr inbounds %"class.cv::saliency::ObjectnessBING::FilterTIG", ptr %12, i32 0, i32 1
  %48 = getelementptr inbounds [2 x float], ptr %47, i64 0, i64 1
  %49 = load float, ptr %48, align 4
  %50 = getelementptr inbounds %"struct.cv::saliency::TIGbits", ptr %11, i32 0, i32 1
  %51 = load i64, ptr %50, align 8
  %52 = sitofp i64 %51 to float
  %53 = fmul float %49, %52
  %54 = call float @llvm.fmuladd.f32(float %43, float %46, float %53)
  ret float %54
}