; Function Attrs: mustprogress nofree norecurse nosync nounwind willreturn memory(argmem: read) uwtable
define noundef float @_ZN2cv8saliency14ObjectnessBING9FilterTIG3dotEllll(ptr nocapture noundef nonnull readonly align 8 dereferenceable(48) %0, i64 noundef %1, i64 noundef %2, i64 noundef %3, i64 noundef %4) local_unnamed_addr #3 align 2 {
  %6 = load <2 x i64>, ptr %0, align 8
  %7 = getelementptr inbounds i8, ptr %0, i64 8
  %8 = load <2 x i64>, ptr %7, align 8
  %9 = tail call range(i64 0, 65) i64 @llvm.ctpop.i64(i64 %1)
  %10 = trunc nuw nsw i64 %9 to i32
  %11 = tail call range(i64 0, 65) i64 @llvm.ctpop.i64(i64 %2)
  %12 = trunc nuw nsw i64 %11 to i32
  %.neg27 = mul nsw i32 %12, -2
  %13 = tail call range(i64 0, 65) i64 @llvm.ctpop.i64(i64 %3)
  %14 = trunc nuw nsw i64 %13 to i32
  %15 = tail call range(i64 0, 65) i64 @llvm.ctpop.i64(i64 %4)
  %16 = trunc nuw nsw i64 %15 to i32
  %17 = shufflevector <2 x i64> %6, <2 x i64> poison, <4 x i32> zeroinitializer
  %18 = insertelement <4 x i64> poison, i64 %4, i64 0
  %19 = insertelement <4 x i64> %18, i64 %3, i64 1
  %20 = insertelement <4 x i64> %19, i64 %1, i64 2
  %21 = insertelement <4 x i64> %20, i64 %2, i64 3
  %22 = and <4 x i64> %17, %21
  %23 = tail call range(i64 0, 65) <4 x i64> @llvm.ctpop.v4i64(<4 x i64> %22)
  %24 = trunc nuw nsw <4 x i64> %23 to <4 x i32>
  %25 = shl nuw nsw <4 x i32> %24, <i32 4, i32 3, i32 1, i32 2>
  %26 = shl nuw nsw i32 %14, 2
  %27 = add nuw nsw i32 %26, %10
  %28 = shl nuw nsw i32 %16, 3
  %29 = add nuw nsw i32 %27, %28
  %narrow = sub nsw i32 %.neg27, %29
  %30 = tail call i32 @llvm.vector.reduce.add.v4i32(<4 x i32> %25)
  %op.rdx = add i32 %30, %narrow
  %31 = shufflevector <2 x i64> %8, <2 x i64> poison, <4 x i32> zeroinitializer
  %32 = and <4 x i64> %31, %21
  %33 = tail call range(i64 0, 65) <4 x i64> @llvm.ctpop.v4i64(<4 x i64> %32)
  %34 = trunc nuw nsw <4 x i64> %33 to <4 x i32>
  %35 = shl nuw nsw <4 x i32> %34, <i32 4, i32 3, i32 1, i32 2>
  %36 = tail call i32 @llvm.vector.reduce.add.v4i32(<4 x i32> %35)
  %op.rdx33 = add i32 %36, %narrow
  %37 = getelementptr inbounds i8, ptr %0, i64 16
  %38 = load float, ptr %37, align 8
  %39 = sitofp i32 %op.rdx to float
  %40 = getelementptr inbounds i8, ptr %0, i64 20
  %41 = load float, ptr %40, align 4
  %42 = sitofp i32 %op.rdx33 to float
  %43 = fmul float %41, %42
  %44 = tail call float @llvm.fmuladd.f32(float %38, float %39, float %43)
  ret float %44
}